target datalayout = "e-m:e-p270:32:32-p271:32:32-p272:64:64-i64:64-i128:128-f80:128-n8:16:32:64-S128"
target triple = "x86_64-pc-linux-gnu"

%struct._GTypeQuery = type { i64, ptr, i32, i32 }
%struct._GTypeInfo = type { i16, ptr, ptr, ptr, ptr, ptr, i16, i16, ptr, ptr }
%struct.dt_control_signal_t = type { ptr }
%struct.dt_signal_description = type { ptr, ptr, ptr, i64, ptr, i32, ptr, ptr, i32 }

@.str = private unnamed_addr constant [17 x i8] c"DarktableSignals\00", align 1
@_signal_type = internal global i64 0, align 8

; Function Attrs: nounwind uwtable
define ptr @dt_control_signal_init() #0 {
  %1 = alloca ptr, align 8
  %2 = alloca %struct._GTypeQuery, align 8
  %3 = alloca %struct._GTypeInfo, align 8
  %4 = alloca i32, align 4
  call void @llvm.lifetime.start.p0(i64 8, ptr %1) #11
  %5 = call noalias ptr @g_malloc0(i64 noundef 8) #12
  store ptr %5, ptr %1, align 8, !tbaa !6
  call void @llvm.lifetime.start.p0(i64 24, ptr %2) #11
  call void @llvm.lifetime.start.p0(i64 72, ptr %3) #11
  call void @llvm.memset.p0.i64(ptr align 8 %3, i8 0, i64 72, i1 false)
  call void @g_type_query(i64 noundef 80, ptr noundef %2)
  %6 = getelementptr inbounds nuw %struct._GTypeQuery, ptr %2, i32 0, i32 2
  %7 = load i32, ptr %6, align 8, !tbaa !11
  %8 = trunc i32 %7 to i16
  %9 = getelementptr inbounds nuw %struct._GTypeInfo, ptr %3, i32 0, i32 0
  store i16 %8, ptr %9, align 8, !tbaa !16
  %10 = getelementptr inbounds nuw %struct._GTypeQuery, ptr %2, i32 0, i32 3
  %11 = load i32, ptr %10, align 4, !tbaa !20
  %12 = trunc i32 %11 to i16
  %13 = getelementptr inbounds nuw %struct._GTypeInfo, ptr %3, i32 0, i32 6
  store i16 %12, ptr %13, align 8, !tbaa !21
  %14 = call i64 @g_type_register_static(i64 noundef 80, ptr noundef @.str, ptr noundef %3, i32 noundef 0)
  store i64 %14, ptr @_signal_type, align 8, !tbaa !22
  %15 = load i64, ptr @_signal_type, align 8, !tbaa !22
  %16 = call ptr (i64, ptr, ...) @g_object_new(i64 noundef %15, ptr noundef null)
  %17 = load ptr, ptr %1, align 8, !tbaa !6
  %18 = getelementptr inbounds nuw %struct.dt_control_signal_t, ptr %17, i32 0, i32 0
  store ptr %16, ptr %18, align 8, !tbaa !23
  call void @llvm.lifetime.start.p0(i64 4, ptr %4) #11
  store i32 0, ptr %4, align 4, !tbaa !26
  br label %19

19:                                               ; preds = %84, %0
  %20 = load i32, ptr %4, align 4, !tbaa !26
  %21 = icmp slt i32 %20, 47
  br i1 %21, label %23, label %22

22:                                               ; preds = %19
  call void @llvm.lifetime.end.p0(i64 4, ptr %4) #11
  br label %87

23:                                               ; preds = %19
  %24 = load i32, ptr %4, align 4, !tbaa !26
  %25 = sext i32 %24 to i64
  %26 = getelementptr inbounds [47 x %struct.dt_signal_description], ptr @_signal_description, i64 0, i64 %25
  %27 = getelementptr inbounds nuw %struct.dt_signal_description, ptr %26, i32 0, i32 0
  %28 = load ptr, ptr %27, align 8, !tbaa !27
  %29 = load i64, ptr @_signal_type, align 8, !tbaa !22
  %30 = load i32, ptr %4, align 4, !tbaa !26
  %31 = sext i32 %30 to i64
  %32 = getelementptr inbounds [47 x %struct.dt_signal_description], ptr @_signal_description, i64 0, i64 %31
  %33 = getelementptr inbounds nuw %struct.dt_signal_description, ptr %32, i32 0, i32 1
  %34 = load ptr, ptr %33, align 8, !tbaa !30
  %35 = load i32, ptr %4, align 4, !tbaa !26
  %36 = sext i32 %35 to i64
  %37 = getelementptr inbounds [47 x %struct.dt_signal_description], ptr @_signal_description, i64 0, i64 %36
  %38 = getelementptr inbounds nuw %struct.dt_signal_description, ptr %37, i32 0, i32 2
  %39 = load ptr, ptr %38, align 8, !tbaa !31
  %40 = load i32, ptr %4, align 4, !tbaa !26
  %41 = sext i32 %40 to i64
  %42 = getelementptr inbounds [47 x %struct.dt_signal_description], ptr @_signal_description, i64 0, i64 %41
  %43 = getelementptr inbounds nuw %struct.dt_signal_description, ptr %42, i32 0, i32 4
  %44 = load ptr, ptr %43, align 8, !tbaa !32
  %45 = load i32, ptr %4, align 4, !tbaa !26
  %46 = sext i32 %45 to i64
  %47 = getelementptr inbounds [47 x %struct.dt_signal_description], ptr @_signal_description, i64 0, i64 %46
  %48 = getelementptr inbounds nuw %struct.dt_signal_description, ptr %47, i32 0, i32 3
  %49 = load i64, ptr %48, align 8, !tbaa !33
  %50 = load i32, ptr %4, align 4, !tbaa !26
  %51 = sext i32 %50 to i64
  %52 = getelementptr inbounds [47 x %struct.dt_signal_description], ptr @_signal_description, i64 0, i64 %51
  %53 = getelementptr inbounds nuw %struct.dt_signal_description, ptr %52, i32 0, i32 5
  %54 = load i32, ptr %53, align 8, !tbaa !34
  %55 = load i32, ptr %4, align 4, !tbaa !26
  %56 = sext i32 %55 to i64
  %57 = getelementptr inbounds [47 x %struct.dt_signal_description], ptr @_signal_description, i64 0, i64 %56
  %58 = getelementptr inbounds nuw %struct.dt_signal_description, ptr %57, i32 0, i32 6
  %59 = load ptr, ptr %58, align 8, !tbaa !35
  %60 = call i32 @g_signal_newv(ptr noundef %28, i64 noundef %29, i32 noundef 2, ptr noundef null, ptr noundef %34, ptr noundef %39, ptr noundef %44, i64 noundef %49, i32 noundef %54, ptr noundef %59)
  %61 = load i32, ptr %4, align 4, !tbaa !26
  %62 = sext i32 %61 to i64
  %63 = getelementptr inbounds [47 x %struct.dt_signal_description], ptr @_signal_description, i64 0, i64 %62
  %64 = getelementptr inbounds nuw %struct.dt_signal_description, ptr %63, i32 0, i32 7
  %65 = load ptr, ptr %64, align 8, !tbaa !36
  %66 = icmp ne ptr %65, null
  br i1 %66, label %67, label %83

67:                                               ; preds = %23
  %68 = load ptr, ptr %1, align 8, !tbaa !6
  %69 = getelementptr inbounds nuw %struct.dt_control_signal_t, ptr %68, i32 0, i32 0
  %70 = load ptr, ptr %69, align 8, !tbaa !23
  %71 = call ptr @g_type_check_instance_cast(ptr noundef %70, i64 noundef 80)
  %72 = load i32, ptr %4, align 4, !tbaa !26
  %73 = sext i32 %72 to i64
  %74 = getelementptr inbounds [47 x %struct.dt_signal_description], ptr @_signal_description, i64 0, i64 %73
  %75 = getelementptr inbounds nuw %struct.dt_signal_description, ptr %74, i32 0, i32 0
  %76 = load ptr, ptr %75, align 8, !tbaa !27
  %77 = load i32, ptr %4, align 4, !tbaa !26
  %78 = sext i32 %77 to i64
  %79 = getelementptr inbounds [47 x %struct.dt_signal_description], ptr @_signal_description, i64 0, i64 %78
  %80 = getelementptr inbounds nuw %struct.dt_signal_description, ptr %79, i32 0, i32 7
  %81 = load ptr, ptr %80, align 8, !tbaa !36
  %82 = call i64 @g_signal_connect_data(ptr noundef %71, ptr noundef %76, ptr noundef %81, ptr noundef null, ptr noundef null, i32 noundef 1)
  br label %83

83:                                               ; preds = %67, %23
  br label %84

84:                                               ; preds = %83
  %85 = load i32, ptr %4, align 4, !tbaa !26
  %86 = add nsw i32 %85, 1
  store i32 %86, ptr %4, align 4, !tbaa !26
  br label %19

87:                                               ; preds = %22
  %88 = load ptr, ptr %1, align 8, !tbaa !6
  call void @llvm.lifetime.end.p0(i64 72, ptr %3) #11
  call void @llvm.lifetime.end.p0(i64 24, ptr %2) #11
  call void @llvm.lifetime.end.p0(i64 8, ptr %1) #11
  ret ptr %88
}