; Function Attrs: nounwind uwtable
define noalias noundef ptr @dt_control_signal_init() local_unnamed_addr #0 {
  %1 = alloca %struct._GTypeQuery, align 8
  %2 = alloca %struct._GTypeInfo, align 8
  %3 = tail call noalias dereferenceable_or_null(8) ptr @g_malloc0(i64 noundef 8) #10
  call void @llvm.lifetime.start.p0(i64 24, ptr nonnull %1) #11
  call void @llvm.lifetime.start.p0(i64 72, ptr nonnull %2) #11
  call void @llvm.memset.p0.i64(ptr noundef nonnull align 8 dereferenceable(72) %2, i8 0, i64 72, i1 false)
  call void @g_type_query(i64 noundef 80, ptr noundef nonnull %1) #11
  %4 = getelementptr inbounds nuw i8, ptr %1, i64 16
  %5 = load i32, ptr %4, align 8, !tbaa !6
  %6 = trunc i32 %5 to i16
  store i16 %6, ptr %2, align 8, !tbaa !14
  %7 = getelementptr inbounds nuw i8, ptr %1, i64 20
  %8 = load i32, ptr %7, align 4, !tbaa !18
  %9 = trunc i32 %8 to i16
  %10 = getelementptr inbounds nuw i8, ptr %2, i64 48
  store i16 %9, ptr %10, align 8, !tbaa !19
  %11 = call i64 @g_type_register_static(i64 noundef 80, ptr noundef nonnull @.str, ptr noundef nonnull %2, i32 noundef 0) #11
  store i64 %11, ptr @_signal_type, align 8, !tbaa !20
  %12 = call ptr (i64, ptr, ...) @g_object_new(i64 noundef %11, ptr noundef null) #11
  store ptr %12, ptr %3, align 8, !tbaa !21
  br label %14

13:                                               ; preds = %30
  call void @llvm.lifetime.end.p0(i64 72, ptr nonnull %2) #11
  call void @llvm.lifetime.end.p0(i64 24, ptr nonnull %1) #11
  ret ptr %3

14:                                               ; preds = %0, %30
  %indvars.iv = phi i64 [ 0, %0 ], [ %indvars.iv.next, %30 ]
  %15 = getelementptr inbounds nuw [47 x %struct.dt_signal_description], ptr @_signal_description, i64 0, i64 %indvars.iv
  %16 = load ptr, ptr %15, align 8, !tbaa !24
  %17 = load i64, ptr @_signal_type, align 8, !tbaa !20
  %18 = getelementptr inbounds nuw i8, ptr %15, i64 32
  %19 = load ptr, ptr %18, align 8, !tbaa !27
  %20 = getelementptr inbounds nuw i8, ptr %15, i64 40
  %21 = load i32, ptr %20, align 8, !tbaa !28
  %22 = getelementptr inbounds nuw i8, ptr %15, i64 48
  %23 = load ptr, ptr %22, align 8, !tbaa !29
  %24 = call i32 @g_signal_newv(ptr noundef %16, i64 noundef %17, i32 noundef 2, ptr noundef null, ptr noundef null, ptr noundef null, ptr noundef %19, i64 noundef 4, i32 noundef %21, ptr noundef %23) #11
  %25 = getelementptr inbounds nuw i8, ptr %15, i64 56
  %26 = load ptr, ptr %25, align 8, !tbaa !30
  %.not = icmp eq ptr %26, null
  br i1 %.not, label %30, label %27

27:                                               ; preds = %14
  %28 = call ptr @g_type_check_instance_cast(ptr noundef %12, i64 noundef 80) #11
  %29 = call i64 @g_signal_connect_data(ptr noundef %28, ptr noundef %16, ptr noundef nonnull %26, ptr noundef null, ptr noundef null, i32 noundef 1) #11
  br label %30

30:                                               ; preds = %14, %27
  %indvars.iv.next = add nuw nsw i64 %indvars.iv, 1
  %exitcond.not = icmp eq i64 %indvars.iv.next, 47
  br i1 %exitcond.not, label %13, label %14
}